; Function Attrs: mustprogress uwtable
define hidden ptr @get_model_func_decl_core(ptr noundef %0, ptr noundef readonly captures(address_is_null) %1, i32 noundef %2) local_unnamed_addr #3 {
  %4 = icmp eq ptr %1, null
  br i1 %4, label %5, label %6

5:                                                ; preds = %3
  tail call void @_ZN3api7context14set_error_codeE13Z3_error_codePKc(ptr noundef nonnull align 8 dereferenceable(3056) %0, i32 noundef 3, ptr noundef nonnull @.str)
  br label %18

6:                                                ; preds = %3
  %7 = getelementptr inbounds nuw i8, ptr %1, i64 24
  %8 = load ptr, ptr %7, align 8, !tbaa !159
  %9 = getelementptr inbounds nuw i8, ptr %8, i64 88
  %10 = load ptr, ptr %9, align 8, !tbaa !207
  %11 = icmp eq ptr %10, null
  br i1 %11, label %_ZNK10model_core17get_num_functionsEv.exit.thread, label %_ZNK10model_core17get_num_functionsEv.exit

_ZNK10model_core17get_num_functionsEv.exit:       ; preds = %6
  %12 = getelementptr inbounds i8, ptr %10, i64 -4
  %13 = load i32, ptr %12, align 4, !tbaa !208
  %.not = icmp ult i32 %2, %13
  br i1 %.not, label %14, label %_ZNK10model_core17get_num_functionsEv.exit.thread

_ZNK10model_core17get_num_functionsEv.exit.thread: ; preds = %6, %_ZNK10model_core17get_num_functionsEv.exit
  tail call void @_ZN3api7context14set_error_codeE13Z3_error_codePKc(ptr noundef nonnull align 8 dereferenceable(3056) %0, i32 noundef 2, ptr noundef null)
  br label %18

14:                                               ; preds = %_ZNK10model_core17get_num_functionsEv.exit
  %15 = zext i32 %2 to i64
  %16 = getelementptr inbounds nuw ptr, ptr %10, i64 %15
  %17 = load ptr, ptr %16, align 8, !tbaa !209
  br label %18

18:                                               ; preds = %_ZNK10model_core17get_num_functionsEv.exit.thread, %14, %5
  %.0 = phi ptr [ null, %5 ], [ null, %_ZNK10model_core17get_num_functionsEv.exit.thread ], [ %17, %14 ]
  ret ptr %.0
}